; Function Attrs: mustprogress nounwind uwtable
define internal fastcc noundef zeroext i1 @_ZN5clang19RecursiveASTVisitorIN12_GLOBAL__N_122EmptyStatementsRemoverEE24TraverseAnnotateTypeAttrEPNS_16AnnotateTypeAttrE(ptr noundef nonnull align 1 dereferenceable(1) %0, ptr noundef readonly captures(none) %1) unnamed_addr #0 align 2 {
  %3 = getelementptr inbounds nuw i8, ptr %1, i64 56
  %4 = load ptr, ptr %3, align 8
  %5 = getelementptr inbounds nuw i8, ptr %1, i64 48
  %6 = load i32, ptr %5, align 8
  %7 = zext i32 %6 to i64
  %8 = getelementptr inbounds nuw ptr, ptr %4, i64 %7
  %.not20 = icmp eq i32 %6, 0
  br i1 %.not20, label %._crit_edge, label %.lr.ph

9:                                                ; preds = %.lr.ph
  %10 = getelementptr inbounds nuw i8, ptr %.01721, i64 8
  %.not = icmp eq ptr %10, %8
  br i1 %.not, label %._crit_edge, label %.lr.ph, !llvm.loop !88

.lr.ph:                                           ; preds = %2, %9
  %.01721 = phi ptr [ %10, %9 ], [ %4, %2 ]
  %11 = load ptr, ptr %.01721, align 8
  %12 = tail call fastcc noundef zeroext i1 @_ZN5clang19RecursiveASTVisitorIN12_GLOBAL__N_122EmptyStatementsRemoverEE12TraverseStmtEPNS_4StmtEPN4llvm15SmallVectorImplINS6_14PointerIntPairIS5_Lj1EbNS6_21PointerLikeTypeTraitsIS5_EENS6_18PointerIntPairInfoIS5_Lj1ESA_EEEEEE(ptr noundef nonnull align 1 dereferenceable(1) %0, ptr noundef %11, ptr noundef null)
  br i1 %12, label %9, label %.loopexit

._crit_edge:                                      ; preds = %9, %2
  %13 = getelementptr inbounds nuw i8, ptr %1, i64 72
  %14 = load ptr, ptr %13, align 8
  %15 = getelementptr inbounds nuw i8, ptr %1, i64 64
  %16 = load i32, ptr %15, align 8
  %17 = zext i32 %16 to i64
  %18 = getelementptr inbounds nuw ptr, ptr %14, i64 %17
  %.not1822 = icmp eq i32 %16, 0
  br i1 %.not1822, label %.loopexit, label %.lr.ph25

.lr.ph25:                                         ; preds = %._crit_edge, %.lr.ph25
  %.01623 = phi ptr [ %21, %.lr.ph25 ], [ %14, %._crit_edge ]
  %19 = load ptr, ptr %.01623, align 8
  %20 = tail call fastcc noundef zeroext i1 @_ZN5clang19RecursiveASTVisitorIN12_GLOBAL__N_122EmptyStatementsRemoverEE12TraverseStmtEPNS_4StmtEPN4llvm15SmallVectorImplINS6_14PointerIntPairIS5_Lj1EbNS6_21PointerLikeTypeTraitsIS5_EENS6_18PointerIntPairInfoIS5_Lj1ESA_EEEEEE(ptr noundef nonnull align 1 dereferenceable(1) %0, ptr noundef %19, ptr noundef null)
  %21 = getelementptr inbounds nuw i8, ptr %.01623, i64 8
  %.not18 = icmp ne ptr %21, %18
  %or.cond.not = select i1 %20, i1 %.not18, i1 false
  br i1 %or.cond.not, label %.lr.ph25, label %.loopexit, !llvm.loop !89

.loopexit:                                        ; preds = %.lr.ph, %.lr.ph25, %._crit_edge
  %.0 = phi i1 [ true, %._crit_edge ], [ %20, %.lr.ph25 ], [ false, %.lr.ph ]
  ret i1 %.0
}